target datalayout = "e-m:e-p270:32:32-p271:32:32-p272:64:64-i64:64-i128:128-f80:128-n8:16:32:64-S128"
target triple = "x86_64-pc-linux-gnu"

%struct.AVFormatContext = type { ptr, ptr, ptr, ptr, ptr, i32, i32, ptr, i32, ptr, i32, ptr, ptr, i64, i64, i64, i32, i32, i32, i64, i64, ptr, i32, i32, ptr, i32, i32, i32, i32, ptr, i64, i32, i32, %struct.AVIOInterruptCB, i32, i32, i32, i32, i64, i32, i32, i32, i32, i32, i32, i32, i32, i32, i32, i32, i32, i64, i32, i32, i32, i32, i32, ptr, ptr, ptr, ptr, i32, ptr, ptr, ptr, ptr, i32, ptr, ptr, i64, ptr, ptr, ptr, i64 }
%struct.AVIOInterruptCB = type { ptr, ptr }
%struct.MvContext = type { i32, i32, i32, i32, [2 x i32], i32, i32 }
%struct.AVIOContext = type { ptr, ptr, i32, ptr, ptr, ptr, ptr, ptr, ptr, i64, i32, i32, i32, i32, i32, i64, ptr, ptr, ptr, ptr, i32, i32, ptr, ptr, ptr, i32, ptr, i64, i64 }

; Function Attrs: nounwind uwtable
define internal i32 @mv_read_seek(ptr noundef %0, i32 noundef %1, i64 noundef %2, i32 noundef %3) #0 {
  %5 = alloca i32, align 4
  %6 = alloca ptr, align 8
  %7 = alloca i32, align 4
  %8 = alloca i64, align 8
  %9 = alloca i32, align 4
  %10 = alloca ptr, align 8
  %11 = alloca ptr, align 8
  %12 = alloca i32, align 4
  %13 = alloca i32, align 4
  %14 = alloca i32, align 4
  store ptr %0, ptr %6, align 8, !tbaa !14
  store i32 %1, ptr %7, align 4, !tbaa !37
  store i64 %2, ptr %8, align 8, !tbaa !59
  store i32 %3, ptr %9, align 4, !tbaa !37
  call void @llvm.lifetime.start.p0(i64 8, ptr %10) #10
  %15 = load ptr, ptr %6, align 8, !tbaa !14
  %16 = getelementptr inbounds nuw %struct.AVFormatContext, ptr %15, i32 0, i32 3
  %17 = load ptr, ptr %16, align 8, !tbaa !16
  store ptr %17, ptr %10, align 8, !tbaa !31
  call void @llvm.lifetime.start.p0(i64 8, ptr %11) #10
  %18 = load ptr, ptr %6, align 8, !tbaa !14
  %19 = getelementptr inbounds nuw %struct.AVFormatContext, ptr %18, i32 0, i32 7
  %20 = load ptr, ptr %19, align 8, !tbaa !71
  %21 = load i32, ptr %7, align 4, !tbaa !37
  %22 = sext i32 %21 to i64
  %23 = getelementptr inbounds ptr, ptr %20, i64 %22
  %24 = load ptr, ptr %23, align 8, !tbaa !35
  store ptr %24, ptr %11, align 8, !tbaa !35
  call void @llvm.lifetime.start.p0(i64 4, ptr %12) #10
  call void @llvm.lifetime.start.p0(i64 4, ptr %13) #10
  %25 = load i32, ptr %9, align 4, !tbaa !37
  %26 = and i32 %25, 8
  %27 = icmp ne i32 %26, 0
  br i1 %27, label %32, label %28

28:                                               ; preds = %4
  %29 = load i32, ptr %9, align 4, !tbaa !37
  %30 = and i32 %29, 2
  %31 = icmp ne i32 %30, 0
  br i1 %31, label %32, label %33

32:                                               ; preds = %28, %4
  store i32 -38, ptr %5, align 4
  store i32 1, ptr %14, align 4
  br label %68

33:                                               ; preds = %28
  %34 = load ptr, ptr %6, align 8, !tbaa !14
  %35 = getelementptr inbounds nuw %struct.AVFormatContext, ptr %34, i32 0, i32 4
  %36 = load ptr, ptr %35, align 8, !tbaa !33
  %37 = getelementptr inbounds nuw %struct.AVIOContext, ptr %36, i32 0, i32 20
  %38 = load i32, ptr %37, align 8, !tbaa !90
  %39 = and i32 %38, 1
  %40 = icmp ne i32 %39, 0
  br i1 %40, label %42, label %41

41:                                               ; preds = %33
  store i32 -5, ptr %5, align 4
  store i32 1, ptr %14, align 4
  br label %68

42:                                               ; preds = %33
  %43 = load ptr, ptr %11, align 8, !tbaa !35
  %44 = load i64, ptr %8, align 8, !tbaa !59
  %45 = load i32, ptr %9, align 4, !tbaa !37
  %46 = call i32 @av_index_search_timestamp(ptr noundef %43, i64 noundef %44, i32 noundef %45)
  store i32 %46, ptr %12, align 4, !tbaa !37
  %47 = load i32, ptr %12, align 4, !tbaa !37
  %48 = icmp slt i32 %47, 0
  br i1 %48, label %49, label %50

49:                                               ; preds = %42
  store i32 -1094995529, ptr %5, align 4
  store i32 1, ptr %14, align 4
  br label %68

50:                                               ; preds = %42
  store i32 0, ptr %13, align 4, !tbaa !37
  br label %51

51:                                               ; preds = %64, %50
  %52 = load i32, ptr %13, align 4, !tbaa !37
  %53 = load ptr, ptr %6, align 8, !tbaa !14
  %54 = getelementptr inbounds nuw %struct.AVFormatContext, ptr %53, i32 0, i32 6
  %55 = load i32, ptr %54, align 4, !tbaa !97
  %56 = icmp ult i32 %52, %55
  br i1 %56, label %57, label %67

57:                                               ; preds = %51
  %58 = load i32, ptr %12, align 4, !tbaa !37
  %59 = load ptr, ptr %10, align 8, !tbaa !31
  %60 = getelementptr inbounds nuw %struct.MvContext, ptr %59, i32 0, i32 4
  %61 = load i32, ptr %13, align 4, !tbaa !37
  %62 = sext i32 %61 to i64
  %63 = getelementptr inbounds [2 x i32], ptr %60, i64 0, i64 %62
  store i32 %58, ptr %63, align 4, !tbaa !37
  br label %64

64:                                               ; preds = %57
  %65 = load i32, ptr %13, align 4, !tbaa !37
  %66 = add nsw i32 %65, 1
  store i32 %66, ptr %13, align 4, !tbaa !37
  br label %51, !llvm.loop !98

67:                                               ; preds = %51
  store i32 0, ptr %5, align 4
  store i32 1, ptr %14, align 4
  br label %68

68:                                               ; preds = %67, %49, %41, %32
  call void @llvm.lifetime.end.p0(i64 4, ptr %13) #10
  call void @llvm.lifetime.end.p0(i64 4, ptr %12) #10
  call void @llvm.lifetime.end.p0(i64 8, ptr %11) #10
  call void @llvm.lifetime.end.p0(i64 8, ptr %10) #10
  %69 = load i32, ptr %5, align 4
  ret i32 %69
}