; Function Attrs: nounwind uwtable
define internal range(i32 -1094995529, 1) i32 @mv_read_seek(ptr noundef readonly captures(none) %0, i32 noundef %1, i64 noundef %2, i32 noundef %3) #1 {
  %5 = getelementptr inbounds nuw i8, ptr %0, i64 24
  %6 = load ptr, ptr %5, align 8, !tbaa !12
  %7 = getelementptr inbounds nuw i8, ptr %0, i64 48
  %8 = load ptr, ptr %7, align 8, !tbaa !56
  %9 = sext i32 %1 to i64
  %10 = getelementptr inbounds ptr, ptr %8, i64 %9
  %11 = load ptr, ptr %10, align 8, !tbaa !58
  %12 = and i32 %3, 10
  %or.cond = icmp eq i32 %12, 0
  br i1 %or.cond, label %13, label %.loopexit

13:                                               ; preds = %4
  %14 = getelementptr inbounds nuw i8, ptr %0, i64 32
  %15 = load ptr, ptr %14, align 8, !tbaa !27
  %16 = getelementptr inbounds nuw i8, ptr %15, i64 144
  %17 = load i32, ptr %16, align 8, !tbaa !75
  %18 = and i32 %17, 1
  %.not19 = icmp eq i32 %18, 0
  br i1 %.not19, label %.loopexit, label %19

19:                                               ; preds = %13
  %20 = tail call i32 @av_index_search_timestamp(ptr noundef %11, i64 noundef %2, i32 noundef %3) #8
  %21 = icmp slt i32 %20, 0
  br i1 %21, label %.loopexit, label %.preheader

.preheader:                                       ; preds = %19
  %22 = getelementptr inbounds nuw i8, ptr %0, i64 44
  %23 = load i32, ptr %22, align 4, !tbaa !82
  %.not = icmp eq i32 %23, 0
  br i1 %.not, label %.loopexit, label %.lr.ph

.lr.ph:                                           ; preds = %.preheader
  %24 = getelementptr inbounds nuw i8, ptr %6, i64 16
  br label %25

25:                                               ; preds = %.lr.ph, %25
  %indvars.iv = phi i64 [ 0, %.lr.ph ], [ %indvars.iv.next, %25 ]
  %26 = getelementptr inbounds nuw [2 x i32], ptr %24, i64 0, i64 %indvars.iv
  store i32 %20, ptr %26, align 4, !tbaa !38
  %indvars.iv.next = add nuw nsw i64 %indvars.iv, 1
  %27 = load i32, ptr %22, align 4, !tbaa !82
  %28 = zext i32 %27 to i64
  %29 = icmp samesign ult i64 %indvars.iv.next, %28
  br i1 %29, label %25, label %.loopexit, !llvm.loop !83

.loopexit:                                        ; preds = %25, %.preheader, %19, %13, %4
  %.016 = phi i32 [ -38, %4 ], [ -5, %13 ], [ -1094995529, %19 ], [ 0, %.preheader ], [ 0, %25 ]
  ret i32 %.016
}